target datalayout = "e-m:e-p270:32:32-p271:32:32-p272:64:64-i64:64-i128:128-f80:128-n8:16:32:64-S128"
target triple = "x86_64-unknown-linux-gnu"

%struct.FLAC__StreamMetadata = type { i32, i32, i32, %union.anon }
%union.anon = type { %struct.FLAC__StreamMetadata_CueSheet }
%struct.FLAC__StreamMetadata_CueSheet = type { [129 x i8], i64, i32, i32, ptr }
%"class.FLAC::Metadata::Prototype" = type <{ ptr, ptr, i8, [7 x i8] }>

@_ZTVN4FLAC8Metadata9PrototypeE = unnamed_addr constant { [5 x ptr] } { [5 x ptr] [ptr null, ptr @_ZTIN4FLAC8Metadata9PrototypeE, ptr @_ZN4FLAC8Metadata9Prototype5clearEv, ptr @_ZN4FLAC8Metadata9PrototypeD1Ev, ptr @_ZN4FLAC8Metadata9PrototypeD0Ev] }, align 8
@_ZTVN4FLAC8Metadata7PaddingE = unnamed_addr constant { [5 x ptr] } { [5 x ptr] [ptr null, ptr @_ZTIN4FLAC8Metadata7PaddingE, ptr @_ZN4FLAC8Metadata9Prototype5clearEv, ptr @_ZN4FLAC8Metadata7PaddingD1Ev, ptr @_ZN4FLAC8Metadata7PaddingD0Ev] }, align 8

; Function Attrs: noreturn nounwind sspstrong uwtable
define linkonce_odr hidden void @__clang_call_terminate(ptr noundef %0) #6 comdat {
  %2 = call ptr @__cxa_begin_catch(ptr %0) #14
  call void @_ZSt9terminatev() #15
  unreachable
}

; Function Attrs: mustprogress nounwind sspstrong uwtable
define void @_ZN4FLAC8Metadata9PrototypeD2Ev(ptr noundef nonnull align 8 dereferenceable(17) %this) unnamed_addr #5 align 2 personality ptr @__gxx_personality_v0 {
entry:
  %this.addr = alloca ptr, align 8
  store ptr %this, ptr %this.addr, align 8
  %this1 = load ptr, ptr %this.addr, align 8
  store ptr getelementptr inbounds ({ [5 x ptr] }, ptr @_ZTVN4FLAC8Metadata9PrototypeE, i32 0, i32 0, i32 2), ptr %this1, align 8
  %vtable = load ptr, ptr %this1, align 8
  %vfn = getelementptr inbounds ptr, ptr %vtable, i64 0
  %0 = load ptr, ptr %vfn, align 8
  invoke void %0(ptr noundef nonnull align 8 dereferenceable(17) %this1)
          to label %invoke.cont unwind label %terminate.lpad

invoke.cont:                                      ; preds = %entry
  ret void

terminate.lpad:                                   ; preds = %entry
  %1 = landingpad { ptr, i32 }
          catch ptr null
  %2 = extractvalue { ptr, i32 } %1, 0
  call void @__clang_call_terminate(ptr %2) #15
  unreachable
}

; Function Attrs: mustprogress nounwind sspstrong uwtable
define void @_ZN4FLAC8Metadata7Padding10set_lengthEj(ptr noundef nonnull align 8 dereferenceable(17) %this, i32 noundef %length) #5 align 2 {
entry:
  %this.addr = alloca ptr, align 8
  %length.addr = alloca i32, align 4
  store ptr %this, ptr %this.addr, align 8
  store i32 %length, ptr %length.addr, align 4
  %this1 = load ptr, ptr %this.addr, align 8
  %0 = load i32, ptr %length.addr, align 4
  %object_ = getelementptr inbounds %"class.FLAC::Metadata::Prototype", ptr %this1, i32 0, i32 1
  %1 = load ptr, ptr %object_, align 8
  %length2 = getelementptr inbounds %struct.FLAC__StreamMetadata, ptr %1, i32 0, i32 2
  store i32 %0, ptr %length2, align 8
  ret void
}

; Function Attrs: mustprogress sspstrong uwtable
define void @_ZN4FLAC8Metadata9PrototypeC2EP20FLAC__StreamMetadatab(ptr noundef nonnull align 8 dereferenceable(17) %this, ptr noundef %object, i1 noundef zeroext %copy) unnamed_addr #0 align 2 {
entry:
  %this.addr = alloca ptr, align 8
  %object.addr = alloca ptr, align 8
  %copy.addr = alloca i8, align 1
  store ptr %this, ptr %this.addr, align 8
  store ptr %object, ptr %object.addr, align 8
  %frombool = zext i1 %copy to i8
  store i8 %frombool, ptr %copy.addr, align 1
  %this1 = load ptr, ptr %this.addr, align 8
  store ptr getelementptr inbounds ({ [5 x ptr] }, ptr @_ZTVN4FLAC8Metadata9PrototypeE, i32 0, i32 0, i32 2), ptr %this1, align 8
  %object_ = getelementptr inbounds %"class.FLAC::Metadata::Prototype", ptr %this1, i32 0, i32 1
  %0 = load i8, ptr %copy.addr, align 1
  %tobool = trunc i8 %0 to i1
  br i1 %tobool, label %cond.true, label %cond.false

cond.true:                                        ; preds = %entry
  %1 = load ptr, ptr %object.addr, align 8
  %call = call ptr @FLAC__metadata_object_clone(ptr noundef %1)
  br label %cond.end

cond.false:                                       ; preds = %entry
  %2 = load ptr, ptr %object.addr, align 8
  br label %cond.end

cond.end:                                         ; preds = %cond.false, %cond.true
  %cond = phi ptr [ %call, %cond.true ], [ %2, %cond.false ]
  store ptr %cond, ptr %object_, align 8
  %is_reference_ = getelementptr inbounds %"class.FLAC::Metadata::Prototype", ptr %this1, i32 0, i32 2
  store i8 0, ptr %is_reference_, align 8
  ret void
}

; Function Attrs: mustprogress sspstrong uwtable
define void @_ZN4FLAC8Metadata7PaddingC2Ej(ptr noundef nonnull align 8 dereferenceable(17) %this, i32 noundef %length) unnamed_addr #0 align 2 personality ptr @__gxx_personality_v0 {
entry:
  %this.addr = alloca ptr, align 8
  %length.addr = alloca i32, align 4
  %exn.slot = alloca ptr, align 8
  %ehselector.slot = alloca i32, align 4
  store ptr %this, ptr %this.addr, align 8
  store i32 %length, ptr %length.addr, align 4
  %this1 = load ptr, ptr %this.addr, align 8
  %call = call ptr @FLAC__metadata_object_new(i32 noundef 1)
  call void @_ZN4FLAC8Metadata9PrototypeC2EP20FLAC__StreamMetadatab(ptr noundef nonnull align 8 dereferenceable(17) %this1, ptr noundef %call, i1 noundef zeroext false)
  store ptr getelementptr inbounds ({ [5 x ptr] }, ptr @_ZTVN4FLAC8Metadata7PaddingE, i32 0, i32 0, i32 2), ptr %this1, align 8
  %0 = load i32, ptr %length.addr, align 4
  invoke void @_ZN4FLAC8Metadata7Padding10set_lengthEj(ptr noundef nonnull align 8 dereferenceable(17) %this1, i32 noundef %0)
          to label %invoke.cont unwind label %lpad

invoke.cont:                                      ; preds = %entry
  ret void

lpad:                                             ; preds = %entry
  %1 = landingpad { ptr, i32 }
          cleanup
  %2 = extractvalue { ptr, i32 } %1, 0
  store ptr %2, ptr %exn.slot, align 8
  %3 = extractvalue { ptr, i32 } %1, 1
  store i32 %3, ptr %ehselector.slot, align 4
  call void @_ZN4FLAC8Metadata9PrototypeD2Ev(ptr noundef nonnull align 8 dereferenceable(17) %this1) #14
  br label %eh.resume

eh.resume:                                        ; preds = %lpad
  %exn = load ptr, ptr %exn.slot, align 8
  %sel = load i32, ptr %ehselector.slot, align 4
  %lpad.val = insertvalue { ptr, i32 } poison, ptr %exn, 0
  %lpad.val2 = insertvalue { ptr, i32 } %lpad.val, i32 %sel, 1
  resume { ptr, i32 } %lpad.val2
}