; Function Attrs: mustprogress sspstrong uwtable
define void @_ZN4FLAC8Metadata7PaddingC2Ej(ptr nocapture noundef nonnull writeonly align 8 dereferenceable(17) %this, i32 noundef %length) unnamed_addr #0 align 2 personality ptr @__gxx_personality_v0 {
entry:
  %call = tail call ptr @FLAC__metadata_object_new(i32 noundef 1)
  %object_.i = getelementptr inbounds i8, ptr %this, i64 8
  store ptr %call, ptr %object_.i, align 8
  %is_reference_.i = getelementptr inbounds i8, ptr %this, i64 16
  store i8 0, ptr %is_reference_.i, align 8
  store ptr getelementptr inbounds ({ [5 x ptr] }, ptr @_ZTVN4FLAC8Metadata7PaddingE, i64 0, i32 0, i64 2), ptr %this, align 8
  %length2.i = getelementptr inbounds i8, ptr %call, i64 8
  store i32 %length, ptr %length2.i, align 8
  ret void
}